; Function Attrs: mustprogress nofree norecurse nosync nounwind willreturn memory(read, inaccessiblemem: none) uwtable
define hidden noundef zeroext i1 @_ZNK17array_decl_plugin13is_array_sortEP4sort(ptr nocapture noundef nonnull readonly align 8 dereferenceable(136) %this, ptr nocapture noundef readonly %s) local_unnamed_addr #6 align 2 {
entry:
  %m_info.i = getelementptr inbounds i8, ptr %s, i64 24
  %0 = load ptr, ptr %m_info.i, align 8
  %cmp.i = icmp eq ptr %0, null
  br i1 %cmp.i, label %land.end, label %_ZNK4decl13get_family_idEv.exit.thread

_ZNK4decl13get_family_idEv.exit.thread:           ; preds = %entry
  %m_family_id = getelementptr inbounds i8, ptr %this, i64 16
  %1 = load i32, ptr %m_family_id, align 8
  %2 = load i32, ptr %0, align 8
  %cmp7 = icmp eq i32 %1, %2
  br i1 %cmp7, label %cond.false.i4, label %land.end

cond.false.i4:                                    ; preds = %_ZNK4decl13get_family_idEv.exit.thread
  %m_kind.i.i = getelementptr inbounds i8, ptr %0, i64 4
  %3 = load i32, ptr %m_kind.i.i, align 4
  %4 = icmp eq i32 %3, 0
  br label %land.end

land.end:                                         ; preds = %entry, %cond.false.i4, %_ZNK4decl13get_family_idEv.exit.thread
  %5 = phi i1 [ false, %_ZNK4decl13get_family_idEv.exit.thread ], [ %4, %cond.false.i4 ], [ false, %entry ]
  ret i1 %5
}